target datalayout = "e-m:e-p270:32:32-p271:32:32-p272:64:64-i64:64-i128:128-f80:128-n8:16:32:64-S128"
target triple = "x86_64-pc-linux-gnu"

%struct.AVFilterContext = type { ptr, ptr, ptr, ptr, ptr, i32, ptr, ptr, i32, ptr, ptr, i32, i32, ptr, ptr, ptr, ptr, i32, ptr, i32, i32 }
%struct.IDETContext = type { ptr, float, float, float, float, i64, i32, [3 x i64], [4 x i64], [4 x i64], [3 x i64], [4 x i64], [4 x i64], [4 x i8], ptr, ptr, ptr, ptr, i32, i32, i32, ptr, i32 }

@.str.39 = private unnamed_addr constant [52 x i8] c"Repeated Fields: Neither:%6ld Top:%6ld Bottom:%6ld\0A\00", align 1
@.str.40 = private unnamed_addr constant [78 x i8] c"Single frame detection: TFF:%6ld BFF:%6ld Progressive:%6ld Undetermined:%6ld\0A\00", align 1
@.str.41 = private unnamed_addr constant [77 x i8] c"Multi frame detection: TFF:%6ld BFF:%6ld Progressive:%6ld Undetermined:%6ld\0A\00", align 1

; Function Attrs: cold nounwind optsize uwtable
define internal void @uninit(ptr noundef %0) #2 {
  %2 = alloca ptr, align 8
  %3 = alloca ptr, align 8
  store ptr %0, ptr %2, align 8, !tbaa !19
  call void @llvm.lifetime.start.p0(i64 8, ptr %3) #10
  %4 = load ptr, ptr %2, align 8, !tbaa !19
  %5 = getelementptr inbounds nuw %struct.AVFilterContext, ptr %4, i32 0, i32 9
  %6 = load ptr, ptr %5, align 8, !tbaa !21
  store ptr %6, ptr %3, align 8, !tbaa !32
  %7 = load ptr, ptr %2, align 8, !tbaa !19
  %8 = load ptr, ptr %3, align 8, !tbaa !32
  %9 = getelementptr inbounds nuw %struct.IDETContext, ptr %8, i32 0, i32 10
  %10 = getelementptr inbounds [3 x i64], ptr %9, i64 0, i64 0
  %11 = load i64, ptr %10, align 8, !tbaa !44
  %12 = load ptr, ptr %3, align 8, !tbaa !32
  %13 = getelementptr inbounds nuw %struct.IDETContext, ptr %12, i32 0, i32 10
  %14 = getelementptr inbounds [3 x i64], ptr %13, i64 0, i64 1
  %15 = load i64, ptr %14, align 8, !tbaa !44
  %16 = load ptr, ptr %3, align 8, !tbaa !32
  %17 = getelementptr inbounds nuw %struct.IDETContext, ptr %16, i32 0, i32 10
  %18 = getelementptr inbounds [3 x i64], ptr %17, i64 0, i64 2
  %19 = load i64, ptr %18, align 8, !tbaa !44
  call void (ptr, i32, ptr, ...) @av_log(ptr noundef %7, i32 noundef 32, ptr noundef @.str.39, i64 noundef %11, i64 noundef %15, i64 noundef %19)
  %20 = load ptr, ptr %2, align 8, !tbaa !19
  %21 = load ptr, ptr %3, align 8, !tbaa !32
  %22 = getelementptr inbounds nuw %struct.IDETContext, ptr %21, i32 0, i32 11
  %23 = getelementptr inbounds [4 x i64], ptr %22, i64 0, i64 0
  %24 = load i64, ptr %23, align 8, !tbaa !44
  %25 = load ptr, ptr %3, align 8, !tbaa !32
  %26 = getelementptr inbounds nuw %struct.IDETContext, ptr %25, i32 0, i32 11
  %27 = getelementptr inbounds [4 x i64], ptr %26, i64 0, i64 1
  %28 = load i64, ptr %27, align 8, !tbaa !44
  %29 = load ptr, ptr %3, align 8, !tbaa !32
  %30 = getelementptr inbounds nuw %struct.IDETContext, ptr %29, i32 0, i32 11
  %31 = getelementptr inbounds [4 x i64], ptr %30, i64 0, i64 2
  %32 = load i64, ptr %31, align 8, !tbaa !44
  %33 = load ptr, ptr %3, align 8, !tbaa !32
  %34 = getelementptr inbounds nuw %struct.IDETContext, ptr %33, i32 0, i32 11
  %35 = getelementptr inbounds [4 x i64], ptr %34, i64 0, i64 3
  %36 = load i64, ptr %35, align 8, !tbaa !44
  call void (ptr, i32, ptr, ...) @av_log(ptr noundef %20, i32 noundef 32, ptr noundef @.str.40, i64 noundef %24, i64 noundef %28, i64 noundef %32, i64 noundef %36)
  %37 = load ptr, ptr %2, align 8, !tbaa !19
  %38 = load ptr, ptr %3, align 8, !tbaa !32
  %39 = getelementptr inbounds nuw %struct.IDETContext, ptr %38, i32 0, i32 12
  %40 = getelementptr inbounds [4 x i64], ptr %39, i64 0, i64 0
  %41 = load i64, ptr %40, align 8, !tbaa !44
  %42 = load ptr, ptr %3, align 8, !tbaa !32
  %43 = getelementptr inbounds nuw %struct.IDETContext, ptr %42, i32 0, i32 12
  %44 = getelementptr inbounds [4 x i64], ptr %43, i64 0, i64 1
  %45 = load i64, ptr %44, align 8, !tbaa !44
  %46 = load ptr, ptr %3, align 8, !tbaa !32
  %47 = getelementptr inbounds nuw %struct.IDETContext, ptr %46, i32 0, i32 12
  %48 = getelementptr inbounds [4 x i64], ptr %47, i64 0, i64 2
  %49 = load i64, ptr %48, align 8, !tbaa !44
  %50 = load ptr, ptr %3, align 8, !tbaa !32
  %51 = getelementptr inbounds nuw %struct.IDETContext, ptr %50, i32 0, i32 12
  %52 = getelementptr inbounds [4 x i64], ptr %51, i64 0, i64 3
  %53 = load i64, ptr %52, align 8, !tbaa !44
  call void (ptr, i32, ptr, ...) @av_log(ptr noundef %37, i32 noundef 32, ptr noundef @.str.41, i64 noundef %41, i64 noundef %45, i64 noundef %49, i64 noundef %53)
  %54 = load ptr, ptr %3, align 8, !tbaa !32
  %55 = getelementptr inbounds nuw %struct.IDETContext, ptr %54, i32 0, i32 16
  call void @av_frame_free(ptr noundef %55)
  %56 = load ptr, ptr %3, align 8, !tbaa !32
  %57 = getelementptr inbounds nuw %struct.IDETContext, ptr %56, i32 0, i32 14
  call void @av_frame_free(ptr noundef %57)
  %58 = load ptr, ptr %3, align 8, !tbaa !32
  %59 = getelementptr inbounds nuw %struct.IDETContext, ptr %58, i32 0, i32 15
  call void @av_frame_free(ptr noundef %59)
  call void @llvm.lifetime.end.p0(i64 8, ptr %3) #10
  ret void
}