; Function Attrs: cold nounwind optsize uwtable
define internal void @uninit(ptr noundef %0) #3 {
  %2 = getelementptr inbounds nuw i8, ptr %0, i64 72
  %3 = load ptr, ptr %2, align 8, !tbaa !12
  %4 = getelementptr inbounds nuw i8, ptr %3, i64 128
  %5 = load i64, ptr %4, align 8, !tbaa !36
  %6 = getelementptr inbounds nuw i8, ptr %3, i64 136
  %7 = load i64, ptr %6, align 8, !tbaa !36
  %8 = getelementptr inbounds nuw i8, ptr %3, i64 144
  %9 = load i64, ptr %8, align 8, !tbaa !36
  tail call void (ptr, i32, ptr, ...) @av_log(ptr noundef %0, i32 noundef 32, ptr noundef nonnull @.str.39, i64 noundef %5, i64 noundef %7, i64 noundef %9) #12
  %10 = getelementptr inbounds nuw i8, ptr %3, i64 152
  %11 = load i64, ptr %10, align 8, !tbaa !36
  %12 = getelementptr inbounds nuw i8, ptr %3, i64 160
  %13 = load i64, ptr %12, align 8, !tbaa !36
  %14 = getelementptr inbounds nuw i8, ptr %3, i64 168
  %15 = load i64, ptr %14, align 8, !tbaa !36
  %16 = getelementptr inbounds nuw i8, ptr %3, i64 176
  %17 = load i64, ptr %16, align 8, !tbaa !36
  tail call void (ptr, i32, ptr, ...) @av_log(ptr noundef %0, i32 noundef 32, ptr noundef nonnull @.str.40, i64 noundef %11, i64 noundef %13, i64 noundef %15, i64 noundef %17) #12
  %18 = getelementptr inbounds nuw i8, ptr %3, i64 184
  %19 = load i64, ptr %18, align 8, !tbaa !36
  %20 = getelementptr inbounds nuw i8, ptr %3, i64 192
  %21 = load i64, ptr %20, align 8, !tbaa !36
  %22 = getelementptr inbounds nuw i8, ptr %3, i64 200
  %23 = load i64, ptr %22, align 8, !tbaa !36
  %24 = getelementptr inbounds nuw i8, ptr %3, i64 208
  %25 = load i64, ptr %24, align 8, !tbaa !36
  tail call void (ptr, i32, ptr, ...) @av_log(ptr noundef %0, i32 noundef 32, ptr noundef nonnull @.str.41, i64 noundef %19, i64 noundef %21, i64 noundef %23, i64 noundef %25) #12
  %26 = getelementptr inbounds nuw i8, ptr %3, i64 240
  tail call void @av_frame_free(ptr noundef nonnull %26) #12
  %27 = getelementptr inbounds nuw i8, ptr %3, i64 224
  tail call void @av_frame_free(ptr noundef nonnull %27) #12
  %28 = getelementptr inbounds nuw i8, ptr %3, i64 232
  tail call void @av_frame_free(ptr noundef nonnull %28) #12
  ret void
}